target datalayout = "e-m:e-p270:32:32-p271:32:32-p272:64:64-i64:64-i128:128-f80:128-n8:16:32:64-S128"
target triple = "x86_64-pc-linux-gnu"

@.str = private unnamed_addr constant [1 x i8] zeroinitializer, align 1
@thousands_grouping_fmt = internal global ptr null, align 8
@thousands_grouping_fmt_flt = internal global ptr null, align 8
@.str.23 = private unnamed_addr constant [2 x i8] c"B\00", align 1
@.str.25 = private unnamed_addr constant [2 x i8] c"b\00", align 1
@.str.27 = private unnamed_addr constant [4 x i8] c"bps\00", align 1
@.str.29 = private unnamed_addr constant [4 x i8] c"Bps\00", align 1
@.str.30 = private unnamed_addr constant [8 x i8] c"packets\00", align 1
@.str.32 = private unnamed_addr constant [10 x i8] c"packets/s\00", align 1
@.str.38 = private unnamed_addr constant [7 x i8] c"fields\00", align 1
@.str.41 = private unnamed_addr constant [2 x i8] c"s\00", align 1
@.str.43 = private unnamed_addr constant [2 x i8] c"E\00", align 1
@.str.44 = private unnamed_addr constant [18 x i8] c"wsutil/str_util.c\00", align 1
@.str.45 = private unnamed_addr constant [31 x i8] c"assertion \22not reached\22 failed\00", align 1
@format_size_wmem.prefix = internal global [8 x ptr] [ptr @.str.12, ptr @.str.11, ptr @.str.10, ptr @.str.9, ptr @.str.18, ptr @.str.17, ptr @.str.16, ptr @.str.15], align 16
@.str.46 = private unnamed_addr constant [7 x i8] c" bytes\00", align 1
@.str.47 = private unnamed_addr constant [6 x i8] c" bits\00", align 1
@.str.48 = private unnamed_addr constant [8 x i8] c" bits/s\00", align 1
@.str.49 = private unnamed_addr constant [9 x i8] c" bytes/s\00", align 1
@.str.50 = private unnamed_addr constant [9 x i8] c" packets\00", align 1
@.str.51 = private unnamed_addr constant [11 x i8] c" packets/s\00", align 1
@.str.52 = private unnamed_addr constant [8 x i8] c" fields\00", align 1
@.str.53 = private unnamed_addr constant [9 x i8] c" seconds\00", align 1
@.str.54 = private unnamed_addr constant [9 x i8] c" erlangs\00", align 1
@__func__.format_size_wmem = private unnamed_addr constant [17 x i8] c"format_size_wmem\00", align 1
@.str.56 = private unnamed_addr constant [4 x i8] c"%'d\00", align 1
@.str.57 = private unnamed_addr constant [3 x i8] c"22\00", align 1
@.str.58 = private unnamed_addr constant [5 x i8] c"%'ld\00", align 1
@.str.59 = private unnamed_addr constant [6 x i8] c"%'.*f\00", align 1
@.str.60 = private unnamed_addr constant [4 x i8] c"%ld\00", align 1
@.str.61 = private unnamed_addr constant [5 x i8] c"%.*f\00", align 1

; Function Attrs: null_pointer_is_valid sspstrong uwtable
define internal void @test_printf_thousands_grouping() #0 {
  %1 = alloca ptr, align 8
  call void @llvm.lifetime.start.p0(i64 8, ptr %1) #15
  %2 = call noalias ptr @wmem_strbuf_new(ptr noundef null, ptr noundef null)
  store ptr %2, ptr %1, align 8
  %3 = load ptr, ptr %1, align 8
  call void (ptr, ptr, ...) @wmem_strbuf_append_printf(ptr noundef %3, ptr noundef @.str.56, i32 noundef 22)
  %4 = load ptr, ptr %1, align 8
  %5 = call ptr @wmem_strbuf_get_str(ptr noundef %4)
  %6 = call i32 @g_strcmp0(ptr noundef %5, ptr noundef @.str.57)
  %7 = icmp eq i32 %6, 0
  br i1 %7, label %8, label %9

8:                                                ; preds = %0
  store ptr @.str.58, ptr @thousands_grouping_fmt, align 8
  store ptr @.str.59, ptr @thousands_grouping_fmt_flt, align 8
  br label %10

9:                                                ; preds = %0
  store ptr @.str.60, ptr @thousands_grouping_fmt, align 8
  store ptr @.str.61, ptr @thousands_grouping_fmt_flt, align 8
  br label %10

10:                                               ; preds = %9, %8
  %11 = load ptr, ptr %1, align 8
  call void @wmem_strbuf_destroy(ptr noundef %11)
  call void @llvm.lifetime.end.p0(i64 8, ptr %1) #15
  ret void
}

; Function Attrs: null_pointer_is_valid sspstrong uwtable
define ptr @format_size_wmem(ptr noundef %0, i64 noundef %1, i32 noundef %2, i16 noundef zeroext %3) #0 {
  %5 = alloca ptr, align 8
  %6 = alloca i64, align 8
  %7 = alloca i32, align 4
  %8 = alloca i16, align 2
  %9 = alloca ptr, align 8
  %10 = alloca i32, align 4
  %11 = alloca i32, align 4
  %12 = alloca i8, align 1
  %13 = alloca ptr, align 8
  store ptr %0, ptr %5, align 8
  store i64 %1, ptr %6, align 8
  store i32 %2, ptr %7, align 4
  store i16 %3, ptr %8, align 2
  call void @llvm.lifetime.start.p0(i64 8, ptr %9) #15
  %14 = load ptr, ptr %5, align 8
  %15 = call noalias ptr @wmem_strbuf_new(ptr noundef %14, ptr noundef null)
  store ptr %15, ptr %9, align 8
  call void @llvm.lifetime.start.p0(i64 4, ptr %10) #15
  store i32 1000, ptr %10, align 4
  call void @llvm.lifetime.start.p0(i64 4, ptr %11) #15
  store i32 0, ptr %11, align 4
  call void @llvm.lifetime.start.p0(i64 1, ptr %12) #15
  store i8 0, ptr %12, align 1
  call void @llvm.lifetime.start.p0(i64 8, ptr %13) #15
  %16 = load ptr, ptr @thousands_grouping_fmt, align 8
  %17 = icmp eq ptr %16, null
  br i1 %17, label %18, label %19

18:                                               ; preds = %4
  call void @test_printf_thousands_grouping()
  br label %19

19:                                               ; preds = %18, %4
  %20 = load i16, ptr %8, align 2
  %21 = zext i16 %20 to i32
  %22 = and i32 %21, 2
  %23 = icmp ne i32 %22, 0
  br i1 %23, label %24, label %25

24:                                               ; preds = %19
  store i32 4, ptr %11, align 4
  store i32 1024, ptr %10, align 4
  br label %25

25:                                               ; preds = %24, %19
  %26 = load i64, ptr %6, align 8
  %27 = load i32, ptr %10, align 4
  %28 = sext i32 %27 to i64
  %29 = sdiv i64 %26, %28
  %30 = load i32, ptr %10, align 4
  %31 = sext i32 %30 to i64
  %32 = sdiv i64 %29, %31
  %33 = load i32, ptr %10, align 4
  %34 = sext i32 %33 to i64
  %35 = sdiv i64 %32, %34
  %36 = load i32, ptr %10, align 4
  %37 = sext i32 %36 to i64
  %38 = sdiv i64 %35, %37
  %39 = icmp sge i64 %38, 10
  br i1 %39, label %40, label %61

40:                                               ; preds = %25
  %41 = load ptr, ptr %9, align 8
  %42 = load ptr, ptr @thousands_grouping_fmt, align 8
  %43 = load i64, ptr %6, align 8
  %44 = load i32, ptr %10, align 4
  %45 = sext i32 %44 to i64
  %46 = sdiv i64 %43, %45
  %47 = load i32, ptr %10, align 4
  %48 = sext i32 %47 to i64
  %49 = sdiv i64 %46, %48
  %50 = load i32, ptr %10, align 4
  %51 = sext i32 %50 to i64
  %52 = sdiv i64 %49, %51
  %53 = load i32, ptr %10, align 4
  %54 = sext i32 %53 to i64
  %55 = sdiv i64 %52, %54
  call void (ptr, ptr, ...) @wmem_strbuf_append_printf(ptr noundef %41, ptr noundef %42, i64 noundef %55)
  %56 = load ptr, ptr %9, align 8
  %57 = load i32, ptr %11, align 4
  %58 = sext i32 %57 to i64
  %59 = getelementptr [8 x ptr], ptr @format_size_wmem.prefix, i64 0, i64 %58
  %60 = load ptr, ptr %59, align 8
  call void @wmem_strbuf_append(ptr noundef %56, ptr noundef %60)
  br label %143

61:                                               ; preds = %25
  %62 = load i64, ptr %6, align 8
  %63 = load i32, ptr %10, align 4
  %64 = sext i32 %63 to i64
  %65 = sdiv i64 %62, %64
  %66 = load i32, ptr %10, align 4
  %67 = sext i32 %66 to i64
  %68 = sdiv i64 %65, %67
  %69 = load i32, ptr %10, align 4
  %70 = sext i32 %69 to i64
  %71 = sdiv i64 %68, %70
  %72 = icmp sge i64 %71, 10
  br i1 %72, label %73, label %92

73:                                               ; preds = %61
  %74 = load ptr, ptr %9, align 8
  %75 = load ptr, ptr @thousands_grouping_fmt, align 8
  %76 = load i64, ptr %6, align 8
  %77 = load i32, ptr %10, align 4
  %78 = sext i32 %77 to i64
  %79 = sdiv i64 %76, %78
  %80 = load i32, ptr %10, align 4
  %81 = sext i32 %80 to i64
  %82 = sdiv i64 %79, %81
  %83 = load i32, ptr %10, align 4
  %84 = sext i32 %83 to i64
  %85 = sdiv i64 %82, %84
  call void (ptr, ptr, ...) @wmem_strbuf_append_printf(ptr noundef %74, ptr noundef %75, i64 noundef %85)
  %86 = load ptr, ptr %9, align 8
  %87 = load i32, ptr %11, align 4
  %88 = add i32 %87, 1
  %89 = sext i32 %88 to i64
  %90 = getelementptr [8 x ptr], ptr @format_size_wmem.prefix, i64 0, i64 %89
  %91 = load ptr, ptr %90, align 8
  call void @wmem_strbuf_append(ptr noundef %86, ptr noundef %91)
  br label %142

92:                                               ; preds = %61
  %93 = load i64, ptr %6, align 8
  %94 = load i32, ptr %10, align 4
  %95 = sext i32 %94 to i64
  %96 = sdiv i64 %93, %95
  %97 = load i32, ptr %10, align 4
  %98 = sext i32 %97 to i64
  %99 = sdiv i64 %96, %98
  %100 = icmp sge i64 %99, 10
  br i1 %100, label %101, label %117

101:                                              ; preds = %92
  %102 = load ptr, ptr %9, align 8
  %103 = load ptr, ptr @thousands_grouping_fmt, align 8
  %104 = load i64, ptr %6, align 8
  %105 = load i32, ptr %10, align 4
  %106 = sext i32 %105 to i64
  %107 = sdiv i64 %104, %106
  %108 = load i32, ptr %10, align 4
  %109 = sext i32 %108 to i64
  %110 = sdiv i64 %107, %109
  call void (ptr, ptr, ...) @wmem_strbuf_append_printf(ptr noundef %102, ptr noundef %103, i64 noundef %110)
  %111 = load ptr, ptr %9, align 8
  %112 = load i32, ptr %11, align 4
  %113 = add i32 %112, 2
  %114 = sext i32 %113 to i64
  %115 = getelementptr [8 x ptr], ptr @format_size_wmem.prefix, i64 0, i64 %114
  %116 = load ptr, ptr %115, align 8
  call void @wmem_strbuf_append(ptr noundef %111, ptr noundef %116)
  br label %141

117:                                              ; preds = %92
  %118 = load i64, ptr %6, align 8
  %119 = load i32, ptr %10, align 4
  %120 = sext i32 %119 to i64
  %121 = sdiv i64 %118, %120
  %122 = icmp sge i64 %121, 10
  br i1 %122, label %123, label %136

123:                                              ; preds = %117
  %124 = load ptr, ptr %9, align 8
  %125 = load ptr, ptr @thousands_grouping_fmt, align 8
  %126 = load i64, ptr %6, align 8
  %127 = load i32, ptr %10, align 4
  %128 = sext i32 %127 to i64
  %129 = sdiv i64 %126, %128
  call void (ptr, ptr, ...) @wmem_strbuf_append_printf(ptr noundef %124, ptr noundef %125, i64 noundef %129)
  %130 = load ptr, ptr %9, align 8
  %131 = load i32, ptr %11, align 4
  %132 = add i32 %131, 3
  %133 = sext i32 %132 to i64
  %134 = getelementptr [8 x ptr], ptr @format_size_wmem.prefix, i64 0, i64 %133
  %135 = load ptr, ptr %134, align 8
  call void @wmem_strbuf_append(ptr noundef %130, ptr noundef %135)
  br label %140

136:                                              ; preds = %117
  %137 = load ptr, ptr %9, align 8
  %138 = load ptr, ptr @thousands_grouping_fmt, align 8
  %139 = load i64, ptr %6, align 8
  call void (ptr, ptr, ...) @wmem_strbuf_append_printf(ptr noundef %137, ptr noundef %138, i64 noundef %139)
  store i8 1, ptr %12, align 1
  br label %140

140:                                              ; preds = %136, %123
  br label %141

141:                                              ; preds = %140, %101
  br label %142

142:                                              ; preds = %141, %73
  br label %143

143:                                              ; preds = %142, %40
  %144 = load i32, ptr %7, align 4
  switch i32 %144, label %190 [
    i32 0, label %191
    i32 1, label %145
    i32 2, label %150
    i32 3, label %155
    i32 4, label %160
    i32 5, label %165
    i32 6, label %170
    i32 9, label %175
    i32 10, label %180
    i32 11, label %185
  ]

145:                                              ; preds = %143
  %146 = load ptr, ptr %9, align 8
  %147 = load i8, ptr %12, align 1, !range !25, !noundef !26
  %148 = trunc i8 %147 to i1
  %149 = select i1 %148, ptr @.str.46, ptr @.str.23
  call void @wmem_strbuf_append(ptr noundef %146, ptr noundef %149)
  br label %191

150:                                              ; preds = %143
  %151 = load ptr, ptr %9, align 8
  %152 = load i8, ptr %12, align 1, !range !25, !noundef !26
  %153 = trunc i8 %152 to i1
  %154 = select i1 %153, ptr @.str.47, ptr @.str.25
  call void @wmem_strbuf_append(ptr noundef %151, ptr noundef %154)
  br label %191

155:                                              ; preds = %143
  %156 = load ptr, ptr %9, align 8
  %157 = load i8, ptr %12, align 1, !range !25, !noundef !26
  %158 = trunc i8 %157 to i1
  %159 = select i1 %158, ptr @.str.48, ptr @.str.27
  call void @wmem_strbuf_append(ptr noundef %156, ptr noundef %159)
  br label %191

160:                                              ; preds = %143
  %161 = load ptr, ptr %9, align 8
  %162 = load i8, ptr %12, align 1, !range !25, !noundef !26
  %163 = trunc i8 %162 to i1
  %164 = select i1 %163, ptr @.str.49, ptr @.str.29
  call void @wmem_strbuf_append(ptr noundef %161, ptr noundef %164)
  br label %191

165:                                              ; preds = %143
  %166 = load ptr, ptr %9, align 8
  %167 = load i8, ptr %12, align 1, !range !25, !noundef !26
  %168 = trunc i8 %167 to i1
  %169 = select i1 %168, ptr @.str.50, ptr @.str.30
  call void @wmem_strbuf_append(ptr noundef %166, ptr noundef %169)
  br label %191

170:                                              ; preds = %143
  %171 = load ptr, ptr %9, align 8
  %172 = load i8, ptr %12, align 1, !range !25, !noundef !26
  %173 = trunc i8 %172 to i1
  %174 = select i1 %173, ptr @.str.51, ptr @.str.32
  call void @wmem_strbuf_append(ptr noundef %171, ptr noundef %174)
  br label %191

175:                                              ; preds = %143
  %176 = load ptr, ptr %9, align 8
  %177 = load i8, ptr %12, align 1, !range !25, !noundef !26
  %178 = trunc i8 %177 to i1
  %179 = select i1 %178, ptr @.str.52, ptr @.str.38
  call void @wmem_strbuf_append(ptr noundef %176, ptr noundef %179)
  br label %191

180:                                              ; preds = %143
  %181 = load ptr, ptr %9, align 8
  %182 = load i8, ptr %12, align 1, !range !25, !noundef !26
  %183 = trunc i8 %182 to i1
  %184 = select i1 %183, ptr @.str.53, ptr @.str.41
  call void @wmem_strbuf_append(ptr noundef %181, ptr noundef %184)
  br label %191

185:                                              ; preds = %143
  %186 = load ptr, ptr %9, align 8
  %187 = load i8, ptr %12, align 1, !range !25, !noundef !26
  %188 = trunc i8 %187 to i1
  %189 = select i1 %188, ptr @.str.54, ptr @.str.43
  call void @wmem_strbuf_append(ptr noundef %186, ptr noundef %189)
  br label %191

190:                                              ; preds = %143
  call void (ptr, i32, ptr, i64, ptr, ptr, ...) @ws_log_fatal_full(ptr noundef @.str, i32 noundef 7, ptr noundef @.str.44, i64 noundef 664, ptr noundef @__func__.format_size_wmem, ptr noundef @.str.45) #19
  unreachable

191:                                              ; preds = %185, %180, %175, %170, %165, %160, %155, %150, %145, %143
  %192 = load ptr, ptr %9, align 8
  %193 = call ptr @wmem_strbuf_finalize(ptr noundef %192)
  store ptr %193, ptr %13, align 8
  %194 = load ptr, ptr %13, align 8
  %195 = call ptr @g_strchomp(ptr noundef %194)
  call void @llvm.lifetime.end.p0(i64 8, ptr %13) #15
  call void @llvm.lifetime.end.p0(i64 1, ptr %12) #15
  call void @llvm.lifetime.end.p0(i64 4, ptr %11) #15
  call void @llvm.lifetime.end.p0(i64 4, ptr %10) #15
  call void @llvm.lifetime.end.p0(i64 8, ptr %9) #15
  ret ptr %195
}