; Function Attrs: null_pointer_is_valid sspstrong uwtable
define ptr @format_size_wmem(ptr noundef %0, i64 noundef %1, i32 noundef %2, i16 noundef zeroext %3) local_unnamed_addr #0 {
  %5 = tail call noalias ptr @wmem_strbuf_new(ptr noundef %0, ptr noundef null)
  %6 = load ptr, ptr @thousands_grouping_fmt, align 8
  %7 = icmp eq ptr %6, null
  br i1 %7, label %8, label %13

8:                                                ; preds = %4
  %9 = tail call noalias ptr @wmem_strbuf_new(ptr noundef null, ptr noundef null)
  tail call void (ptr, ptr, ...) @wmem_strbuf_append_printf(ptr noundef %9, ptr noundef nonnull @.str.56, i32 noundef 22)
  %10 = tail call ptr @wmem_strbuf_get_str(ptr noundef %9)
  %11 = tail call i32 @g_strcmp0(ptr noundef %10, ptr noundef nonnull @.str.57)
  %12 = icmp eq i32 %11, 0
  %.str.58..str.60.i = select i1 %12, ptr @.str.58, ptr @.str.60
  %.str.59..str.61.i = select i1 %12, ptr @.str.59, ptr @.str.61
  store ptr %.str.58..str.60.i, ptr @thousands_grouping_fmt, align 8
  store ptr %.str.59..str.61.i, ptr @thousands_grouping_fmt_flt, align 8
  tail call void @wmem_strbuf_destroy(ptr noundef %9)
  br label %13

13:                                               ; preds = %8, %4
  %14 = and i16 %3, 2
  %.not = icmp eq i16 %14, 0
  %15 = shl nuw nsw i16 %14, 1
  %spec.select = zext nneg i16 %15 to i32
  %spec.select70 = select i1 %.not, i64 1000, i64 1024
  %16 = sdiv i64 %1, %spec.select70
  %17 = sdiv i64 %16, %spec.select70
  %18 = sdiv i64 %17, %spec.select70
  %19 = sdiv i64 %18, %spec.select70
  %20 = icmp sgt i64 %19, 9
  br i1 %20, label %21, label %26

21:                                               ; preds = %13
  %22 = load ptr, ptr @thousands_grouping_fmt, align 8
  tail call void (ptr, ptr, ...) @wmem_strbuf_append_printf(ptr noundef %5, ptr noundef %22, i64 noundef %19)
  %23 = zext nneg i16 %15 to i64
  %24 = getelementptr [8 x ptr], ptr @format_size_wmem.prefix, i64 0, i64 %23
  %25 = load ptr, ptr %24, align 16
  tail call void @wmem_strbuf_append(ptr noundef %5, ptr noundef %25)
  br label %51

26:                                               ; preds = %13
  %27 = icmp sgt i64 %18, 9
  br i1 %27, label %28, label %34

28:                                               ; preds = %26
  %29 = load ptr, ptr @thousands_grouping_fmt, align 8
  tail call void (ptr, ptr, ...) @wmem_strbuf_append_printf(ptr noundef %5, ptr noundef %29, i64 noundef %18)
  %30 = or disjoint i32 %spec.select, 1
  %31 = zext nneg i32 %30 to i64
  %32 = getelementptr [8 x ptr], ptr @format_size_wmem.prefix, i64 0, i64 %31
  %33 = load ptr, ptr %32, align 8
  tail call void @wmem_strbuf_append(ptr noundef %5, ptr noundef %33)
  br label %51

34:                                               ; preds = %26
  %35 = icmp sgt i64 %17, 9
  br i1 %35, label %36, label %42

36:                                               ; preds = %34
  %37 = load ptr, ptr @thousands_grouping_fmt, align 8
  tail call void (ptr, ptr, ...) @wmem_strbuf_append_printf(ptr noundef %5, ptr noundef %37, i64 noundef %17)
  %38 = or disjoint i32 %spec.select, 2
  %39 = zext nneg i32 %38 to i64
  %40 = getelementptr [8 x ptr], ptr @format_size_wmem.prefix, i64 0, i64 %39
  %41 = load ptr, ptr %40, align 16
  tail call void @wmem_strbuf_append(ptr noundef %5, ptr noundef %41)
  br label %51

42:                                               ; preds = %34
  %43 = icmp sgt i64 %16, 9
  %44 = load ptr, ptr @thousands_grouping_fmt, align 8
  br i1 %43, label %45, label %50

45:                                               ; preds = %42
  tail call void (ptr, ptr, ...) @wmem_strbuf_append_printf(ptr noundef %5, ptr noundef %44, i64 noundef %16)
  %46 = or disjoint i32 %spec.select, 3
  %47 = zext nneg i32 %46 to i64
  %48 = getelementptr [8 x ptr], ptr @format_size_wmem.prefix, i64 0, i64 %47
  %49 = load ptr, ptr %48, align 8
  tail call void @wmem_strbuf_append(ptr noundef %5, ptr noundef %49)
  br label %51

50:                                               ; preds = %42
  tail call void (ptr, ptr, ...) @wmem_strbuf_append_printf(ptr noundef %5, ptr noundef %44, i64 noundef %1)
  br label %51

51:                                               ; preds = %28, %45, %50, %36, %21
  %.064 = phi i1 [ false, %21 ], [ false, %28 ], [ false, %36 ], [ false, %45 ], [ true, %50 ]
  switch i32 %2, label %70 [
    i32 0, label %71
    i32 1, label %52
    i32 2, label %54
    i32 3, label %56
    i32 4, label %58
    i32 5, label %60
    i32 6, label %62
    i32 9, label %64
    i32 10, label %66
    i32 11, label %68
  ]

52:                                               ; preds = %51
  %53 = select i1 %.064, ptr @.str.46, ptr @.str.23
  br label %.sink.split

54:                                               ; preds = %51
  %55 = select i1 %.064, ptr @.str.47, ptr @.str.25
  br label %.sink.split

56:                                               ; preds = %51
  %57 = select i1 %.064, ptr @.str.48, ptr @.str.27
  br label %.sink.split

58:                                               ; preds = %51
  %59 = select i1 %.064, ptr @.str.49, ptr @.str.29
  br label %.sink.split

60:                                               ; preds = %51
  %61 = select i1 %.064, ptr @.str.50, ptr @.str.30
  br label %.sink.split

62:                                               ; preds = %51
  %63 = select i1 %.064, ptr @.str.51, ptr @.str.32
  br label %.sink.split

64:                                               ; preds = %51
  %65 = select i1 %.064, ptr @.str.52, ptr @.str.38
  br label %.sink.split

66:                                               ; preds = %51
  %67 = select i1 %.064, ptr @.str.53, ptr @.str.41
  br label %.sink.split

68:                                               ; preds = %51
  %69 = select i1 %.064, ptr @.str.54, ptr @.str.43
  br label %.sink.split

70:                                               ; preds = %51
  tail call void (ptr, i32, ptr, i64, ptr, ptr, ...) @ws_log_fatal_full(ptr noundef nonnull @.str, i32 noundef 7, ptr noundef nonnull @.str.44, i64 noundef 664, ptr noundef nonnull @__func__.format_size_wmem, ptr noundef nonnull @.str.45) #27
  unreachable

.sink.split:                                      ; preds = %52, %54, %56, %58, %60, %62, %64, %66, %68
  %.sink = phi ptr [ %69, %68 ], [ %67, %66 ], [ %65, %64 ], [ %63, %62 ], [ %61, %60 ], [ %59, %58 ], [ %57, %56 ], [ %55, %54 ], [ %53, %52 ]
  tail call void @wmem_strbuf_append(ptr noundef %5, ptr noundef nonnull %.sink)
  br label %71

71:                                               ; preds = %.sink.split, %51
  %72 = tail call ptr @wmem_strbuf_finalize(ptr noundef %5)
  %73 = tail call ptr @g_strchomp(ptr noundef %72)
  ret ptr %73
}